; Function Attrs: null_pointer_is_valid sspstrong uwtable
define internal fastcc void @proto_mpeg_descriptor_dissect_subtitling(ptr noundef %0, i32 noundef %1, i32 noundef range(i32 1, 256) %2, ptr noundef %3) unnamed_addr #1 {
  %5 = add i32 %2, %1
  %6 = icmp ult i32 %1, %5
  br i1 %6, label %.lr.ph, label %._crit_edge

.lr.ph:                                           ; preds = %4, %.lr.ph
  %.019 = phi i32 [ %18, %.lr.ph ], [ %1, %4 ]
  %7 = load i32, ptr @hf_mpeg_descr_subtitling_lang_code, align 4
  %8 = tail call ptr @proto_tree_add_item(ptr noundef %3, i32 noundef %7, ptr noundef %0, i32 noundef %.019, i32 noundef 3, i32 noundef 0)
  %9 = add i32 %.019, 3
  %10 = load i32, ptr @hf_mpeg_descr_subtitling_type, align 4
  %11 = tail call ptr @proto_tree_add_item(ptr noundef %3, i32 noundef %10, ptr noundef %0, i32 noundef %9, i32 noundef 1, i32 noundef 0)
  %12 = add i32 %.019, 4
  %13 = load i32, ptr @hf_mpeg_descr_subtitling_composition_page_id, align 4
  %14 = tail call ptr @proto_tree_add_item(ptr noundef %3, i32 noundef %13, ptr noundef %0, i32 noundef %12, i32 noundef 2, i32 noundef 0)
  %15 = add i32 %.019, 6
  %16 = load i32, ptr @hf_mpeg_descr_subtitling_ancillary_page_id, align 4
  %17 = tail call ptr @proto_tree_add_item(ptr noundef %3, i32 noundef %16, ptr noundef %0, i32 noundef %15, i32 noundef 2, i32 noundef 0)
  %18 = add i32 %.019, 8
  %19 = icmp ult i32 %18, %5
  br i1 %19, label %.lr.ph, label %._crit_edge, !llvm.loop !21

._crit_edge:                                      ; preds = %.lr.ph, %4
  ret void
}